((dp0
S'activity_8'
p1
(dp2
S'fields'
p3
(lp4
sS'name'
p5
S'test prep'
p6
ssS'activity_9'
p7
(dp8
g3
(lp9
sg5
S'exam prep'
p10
ssS'activity_4'
p11
(dp12
S'fields'
p13
(lp14
S'mark out of 100'
p15
asg5
S'test'
p16
ssS'activity_5'
p17
(dp18
S'fields'
p19
(lp20
S'mark out of 100'
p21
asg5
S'exam'
p22
ssS'activity_6'
p23
(dp24
S'fields'
p25
(lp26
sg5
S'Boost your Algebra workshop'
p27
ssS'activity_7'
p28
(dp29
S'fields'
p30
(lp31
S'grade'
p32
asg5
S'final grade'
p33
ssS'activity_1'
p34
(dp35
S'fields'
p36
(lp37
S'duration in hours'
p38
aS'topics'
p39
asg5
S'one-on-one tutoring'
p40
ssS'activity_2'
p41
(dp42
S'fields'
p43
(lp44
S'final grade'
p45
asg5
S'course completion'
p46
ssS'activity_3'
p47
(dp48
S'fields'
p49
(lp50
sg5
S'confirmation of enrolment'
p51
ssI9
g5
tp52
.