((dp0
S'course_24'
p1
(dp2
S'id'
p3
S'340'
p4
ssS'course_21'
p5
(dp6
g3
S'332'
p7
ssS'course_20'
p8
(dp9
g3
S'363'
p10
ssS'course_23'
p11
(dp12
g3
S'350'
p13
ssS'course_22'
p14
(dp15
g3
S'328'
p16
ssS'course_6'
p17
(dp18
S'department'
p19
S'MATHS'
p20
sS'number'
p21
S'253'
p22
sS'name'
p23
S'Advancing Mathematics 3'
p24
sg3
S'253'
p25
ssS'course_7'
p26
(dp27
g19
S'MATHS'
p28
sg21
S'162'
p29
sg23
S'Modelling and Computation'
p30
sg3
S'162'
p31
ssS'course_4'
p32
(dp33
g19
S'MATHS'
p34
sg21
S'208'
p35
sg23
S'General Mathematics 2'
p36
sg3
S'208'
p37
ssS'course_5'
p38
(dp39
g19
S'MATHS'
p40
sg21
S'250'
p41
sg23
S'Advancing Mathematics 2'
p42
sg3
S'250'
p43
ssS'course_2'
p44
(dp45
g19
S'MATHS'
p46
sg21
S'108'
p47
sg23
S'General Mathematics 1'
p48
sg3
S'108'
p49
ssS'course_3'
p50
(dp51
g19
S'MATHS'
p52
sg21
S'150'
p53
sg23
S'Advancing Mathematics 1'
p54
sg3
S'150'
p55
ssS'course_1'
p56
(dp57
g19
S'MATHS'
p58
sg21
S'102'
p59
sg23
S'Functioning in Mathematics'
p60
sg3
S'102'
p61
ssS'course_8'
p62
(dp63
g19
S'MATHS'
p64
sg21
S'260'
p65
sg23
S'Differential  Equations'
p66
sg3
S'260'
p67
ssS'course_9'
p68
(dp69
g19
S'MATHS'
p70
sg21
S'255'
p71
sg23
S'Principles of Mathematics'
p72
sg3
S'255'
p73
ssS'course_14'
p74
(dp75
S'department'
p76
S'MATHS'
p77
sg3
S'9x'
p78
sS'number'
p79
S'190'
p80
sS'name'
p81
S'Foundation Mathematics'
p82
ssS'course_15'
p83
(dp84
S'department'
p85
S'COMPSCI'
p86
sS'number'
p87
S'225'
p88
sS'name'
p89
S'Discrete Structures in Mathematics and Computer Science'
p90
sg3
S'COMPSCI 225'
p91
ssS'course_16'
p92
(dp93
S'department'
p94
S'MATHS'
p95
sS'number'
p96
S'3xx'
p97
sg3
g97
sS'name'
p98
S'Stage 3 Maths'
p99
ssS'course_17'
p100
(dp101
g3
S'91P'
p102
ssS'course_10'
p103
(dp104
g19
S'MATHS'
p105
sg21
S'270'
p106
sg23
S'Numerical Computation'
p107
sg3
S'270'
p108
ssS'course_11'
p109
(dp110
S'department'
p111
S'MATHS'
p112
sS'number'
p113
S'190'
p114
sg3
S'190'
p115
sS'name'
p116
S'Great Ideas Shaping Our World'
p117
ssS'course_12'
p118
(dp119
S'department'
p120
S'MATHS'
p121
sg3
S'153'
p122
sS'name'
p123
S'Accelerated Mathematics'
p124
sS'number'
p125
S'153'
p126
ssS'course_13'
p127
(dp128
S'department'
p129
S'MATHS'
p130
sg3
S'202'
p131
sS'number'
p132
S'202'
p133
sS'name'
p134
S'Tutoring in Mathematics'
p135
ssS'course_18'
p136
(dp137
g3
S'302'
p138
ssS'course_19'
p139
(dp140
g3
S'361'
p141
ssI24
g3
tp142
.