((dp0
S'semester_9'
p1
(dp2
S'semester'
p3
S'First'
p4
sS'name'
p5
S'2017 S1'
p6
sS'year'
p7
S'2017'
p8
ssS'semester_8'
p9
(dp10
g3
S'Summer'
p11
sg5
S'2017 SS'
p12
sg7
S'2017'
p13
ssS'semester_1'
p14
(dp15
g3
S'Second'
p16
sg5
S'2014 S2'
p17
sg7
S'2014'
p18
ssS'semester_3'
p19
(dp20
g3
S'First'
p21
sg5
S'2015 S1'
p22
sg7
S'2015'
p23
ssS'semester_2'
p24
(dp25
g3
S'Summer'
p26
sg5
S'2015 SS'
p27
sg7
S'2015'
p28
ssS'semester_5'
p29
(dp30
g3
S'Summer'
p31
sg5
S'2016 SS'
p32
sg7
S'2016'
p33
ssS'semester_4'
p34
(dp35
g3
S'Second'
p36
sg5
S'2015 S2'
p37
sg7
S'2015'
p38
ssS'semester_7'
p39
(dp40
g3
S'Second'
p41
sg5
S'2016 S2'
p42
sg7
S'2016'
p43
ssS'semester_6'
p44
(dp45
g3
S'First'
p46
sg5
S'2016 S1'
p47
sg7
S'2016'
p48
ssS'semester_10'
p49
(dp50
g3
S'Second'
p51
sg5
S'2017 S2'
p52
sg7
S'2017'
p53
ssI10
g5
tp54
.