((dp0
S'student_1'
p1
(dp2
S'Last Name'
p3
S' Mouse'
p4
sS'First Name'
p5
S' Mickey'
p6
sS'Id'
p7
S'38348888'
p8
sS'E-mail'
p9
S'mmou1234@aucklanduni.ac.nz'
p10
sS'upi'
p11
S'mmou1234'
p12
ssI1
g11
tp13
.