((dp0
S'week_22'
p1
(dp2
S'type'
p3
S'ordinary'
p4
sS'number'
p5
S'13'
p6
ssS'week_20'
p7
(dp8
S'type'
p9
S'exam'
p10
sg5
S'e6'
p11
ssS'week_21'
p12
(dp13
g9
S'exam'
p14
sg5
S'e7'
p15
ssS'week_9'
p16
(dp17
g9
S'ordinary'
p18
sg5
S'7'
p19
ssS'week_8'
p20
(dp21
g9
S'break'
p22
sg5
S'b2'
p23
ssS'week_7'
p24
(dp25
g9
S'break'
p26
sg5
S'b1'
p27
ssS'week_6'
p28
(dp29
g9
S'ordinary'
p30
sg5
S'6'
p31
ssS'week_5'
p32
(dp33
g9
S'ordinary'
p34
sg5
S'5'
p35
ssS'week_4'
p36
(dp37
g9
S'ordinary'
p38
sg5
S'4'
p39
ssS'week_3'
p40
(dp41
g9
S'ordinary'
p42
sg5
S'3'
p43
ssS'week_2'
p44
(dp45
g9
S'ordinary'
p46
sg5
S'2'
p47
ssS'week_1'
p48
(dp49
g9
S'ordinary'
p50
sg5
S'1'
p51
ssS'week_19'
p52
(dp53
g9
S'exam'
p54
sg5
S'e5'
p55
ssS'week_18'
p56
(dp57
g9
S'exam'
p58
sg5
S'e4'
p59
ssS'week_17'
p60
(dp61
g9
S'exam'
p62
sg5
S'e3'
p63
ssS'week_16'
p64
(dp65
g9
S'exam'
p66
sg5
S'e2'
p67
ssS'week_15'
p68
(dp69
g9
S'exam'
p70
sg5
S'e1'
p71
ssS'week_14'
p72
(dp73
g9
S'ordinary'
p74
sg5
S'12'
p75
ssS'week_13'
p76
(dp77
g9
S'ordinary'
p78
sg5
S'11'
p79
ssS'week_12'
p80
(dp81
g9
S'ordinary'
p82
sg5
S'10'
p83
ssS'week_11'
p84
(dp85
g9
S'ordinary'
p86
sg5
S'9'
p87
ssS'week_10'
p88
(dp89
g9
S'ordinary'
p90
sg5
S'8'
p91
ssI22
g5
tp92
.